; Function Attrs: alwaysinline norecurse nounwind ssp uwtable
define internal void @"_ZN6open3d4core15ParallelForCPU_IZZZNS_1t8geometry6kernel9transform19TransformNormalsCPUERKNS0_6TensorERS6_ENK3$_0clEvENKUlvE_clEvEUllE_EEvRKNS0_6DeviceElRKT_.omp_outlined"(ptr noalias noundef readonly captures(none) %0, ptr noalias readnone captures(none) %1, ptr noundef nonnull readonly align 8 captures(none) dereferenceable(8) %2, ptr noundef nonnull readonly align 8 captures(none) dereferenceable(16) %3) #23 personality ptr @__gxx_personality_v0 {
  %5 = alloca i64, align 8
  %6 = alloca i64, align 8
  %7 = alloca i64, align 8
  %8 = alloca i32, align 4
  %9 = load i64, ptr %2, align 8, !tbaa !9
  %10 = icmp sgt i64 %9, 0
  br i1 %10, label %11, label %52

11:                                               ; preds = %4
  %12 = add nsw i64 %9, -1
  call void @llvm.lifetime.start.p0(i64 8, ptr nonnull %5) #24
  store i64 0, ptr %5, align 8, !tbaa !9
  call void @llvm.lifetime.start.p0(i64 8, ptr nonnull %6) #24
  store i64 %12, ptr %6, align 8, !tbaa !9
  call void @llvm.lifetime.start.p0(i64 8, ptr nonnull %7) #24
  store i64 1, ptr %7, align 8, !tbaa !9
  call void @llvm.lifetime.start.p0(i64 4, ptr nonnull %8) #24
  store i32 0, ptr %8, align 4, !tbaa !146
  %13 = load i32, ptr %0, align 4, !tbaa !146
  call void @__kmpc_for_static_init_8(ptr nonnull @1, i32 %13, i32 34, ptr nonnull %8, ptr nonnull %5, ptr nonnull %6, ptr nonnull %7, i64 1, i64 1)
  %14 = load i64, ptr %6, align 8, !tbaa !9
  %15 = call i64 @llvm.smin.i64(i64 %14, i64 %12)
  store i64 %15, ptr %6, align 8, !tbaa !9
  %16 = load i64, ptr %5, align 8, !tbaa !9
  %.not14 = icmp sgt i64 %16, %15
  br i1 %.not14, label %._crit_edge, label %.lr.ph

.lr.ph:                                           ; preds = %11
  %.val = load ptr, ptr %3, align 8, !tbaa !641
  %17 = getelementptr inbounds nuw i8, ptr %3, i64 8
  %.val13 = load ptr, ptr %17, align 8, !tbaa !643
  %18 = getelementptr inbounds nuw i8, ptr %.val, i64 4
  %19 = getelementptr inbounds nuw i8, ptr %.val, i64 8
  %20 = getelementptr inbounds nuw i8, ptr %.val, i64 16
  %21 = getelementptr inbounds nuw i8, ptr %.val, i64 20
  %22 = getelementptr inbounds nuw i8, ptr %.val, i64 24
  %23 = getelementptr inbounds nuw i8, ptr %.val, i64 32
  %24 = getelementptr inbounds nuw i8, ptr %.val, i64 36
  %25 = getelementptr inbounds nuw i8, ptr %.val, i64 40
  br label %26

26:                                               ; preds = %.lr.ph, %26
  %.015 = phi i64 [ %16, %.lr.ph ], [ %51, %26 ]
  %.idx.i = mul nsw i64 %.015, 12
  %27 = getelementptr inbounds i8, ptr %.val13, i64 %.idx.i
  %28 = load float, ptr %.val, align 4, !tbaa !635
  %29 = load float, ptr %27, align 4, !tbaa !635
  %30 = load float, ptr %18, align 4, !tbaa !635
  %31 = getelementptr inbounds nuw i8, ptr %27, i64 4
  %32 = load float, ptr %31, align 4, !tbaa !635
  %33 = fmul float %30, %32
  %34 = call float @llvm.fmuladd.f32(float %28, float %29, float %33)
  %35 = load float, ptr %19, align 4, !tbaa !635
  %36 = getelementptr inbounds nuw i8, ptr %27, i64 8
  %37 = load float, ptr %36, align 4, !tbaa !635
  %38 = call float @llvm.fmuladd.f32(float %35, float %37, float %34)
  %39 = load float, ptr %20, align 4, !tbaa !635
  %40 = load float, ptr %21, align 4, !tbaa !635
  %41 = fmul float %32, %40
  %42 = call float @llvm.fmuladd.f32(float %39, float %29, float %41)
  %43 = load float, ptr %22, align 4, !tbaa !635
  %44 = call float @llvm.fmuladd.f32(float %43, float %37, float %42)
  %45 = load float, ptr %23, align 4, !tbaa !635
  %46 = load float, ptr %24, align 4, !tbaa !635
  %47 = fmul float %32, %46
  %48 = call float @llvm.fmuladd.f32(float %45, float %29, float %47)
  %49 = load float, ptr %25, align 4, !tbaa !635
  %50 = call float @llvm.fmuladd.f32(float %49, float %37, float %48)
  store float %38, ptr %27, align 4, !tbaa !635
  store float %44, ptr %31, align 4, !tbaa !635
  store float %50, ptr %36, align 4, !tbaa !635
  %51 = add i64 %.015, 1
  %exitcond.not = icmp eq i64 %.015, %15
  br i1 %exitcond.not, label %._crit_edge, label %26

._crit_edge:                                      ; preds = %26, %11
  call void @__kmpc_for_static_fini(ptr nonnull @1, i32 %13)
  call void @llvm.lifetime.end.p0(i64 4, ptr nonnull %8) #24
  call void @llvm.lifetime.end.p0(i64 8, ptr nonnull %7) #24
  call void @llvm.lifetime.end.p0(i64 8, ptr nonnull %6) #24
  call void @llvm.lifetime.end.p0(i64 8, ptr nonnull %5) #24
  br label %52

52:                                               ; preds = %._crit_edge, %4
  ret void
}